; Function Attrs: cold nounwind optsize uwtable
define internal fastcc void @free_duplicate_contexts(ptr noundef %0) unnamed_addr #2 {
  %2 = getelementptr inbounds nuw i8, ptr %0, i64 912
  %3 = load i32, ptr %2, align 8, !tbaa !44
  %4 = icmp sgt i32 %3, 1
  br i1 %4, label %.lr.ph, label %._crit_edge

.lr.ph:                                           ; preds = %1
  %5 = getelementptr inbounds nuw i8, ptr %0, i64 656
  br label %6

._crit_edge:                                      ; preds = %6, %1
  tail call fastcc void @free_duplicate_context(ptr noundef nonnull %0) #13
  ret void

6:                                                ; preds = %.lr.ph, %6
  %indvars.iv = phi i64 [ 1, %.lr.ph ], [ %indvars.iv.next, %6 ]
  %7 = getelementptr inbounds nuw [32 x ptr], ptr %5, i64 0, i64 %indvars.iv
  %8 = load ptr, ptr %7, align 8, !tbaa !10
  tail call fastcc void @free_duplicate_context(ptr noundef %8) #13
  tail call void @av_freep(ptr noundef nonnull %7) #12
  %indvars.iv.next = add nuw nsw i64 %indvars.iv, 1
  %9 = load i32, ptr %2, align 8, !tbaa !44
  %10 = sext i32 %9 to i64
  %11 = icmp slt i64 %indvars.iv.next, %10
  br i1 %11, label %6, label %._crit_edge, !llvm.loop !124
}